; Function Attrs: mustprogress uwtable
define noundef double @_ZNK8QuantLib38AnalyticPartialTimeBarrierOptionEngine2g3Ev(ptr nocapture noundef nonnull readonly align 8 dereferenceable(384) %this) local_unnamed_addr #9 align 2 {
entry:
  %ref.tmp.i = alloca %"class.QuantLib::Date", align 8
  %process_.i = getelementptr inbounds nuw i8, ptr %this, i64 368
  %0 = load ptr, ptr %process_.i, align 8, !tbaa !48
  %cmp.not.i.i = icmp eq ptr %0, null
  br i1 %cmp.not.i.i, label %cond.false.i.i, label %_ZNK5boost10shared_ptrIN8QuantLib30GeneralizedBlackScholesProcessEEptEv.exit.i, !prof !66

cond.false.i.i:                                   ; preds = %entry
  tail call void @_ZN5boost16assertion_failedEPKcS1_S1_l(ptr noundef nonnull @.str.22, ptr noundef nonnull @__PRETTY_FUNCTION__._ZNK5boost10shared_ptrIN8QuantLib30GeneralizedBlackScholesProcessEEptEv, ptr noundef nonnull @.str.23, i64 noundef 784)
  %.pre.i.i = load ptr, ptr %process_.i, align 8, !tbaa !48
  br label %_ZNK5boost10shared_ptrIN8QuantLib30GeneralizedBlackScholesProcessEEptEv.exit.i

_ZNK5boost10shared_ptrIN8QuantLib30GeneralizedBlackScholesProcessEEptEv.exit.i: ; preds = %cond.false.i.i, %entry
  %1 = phi ptr [ %0, %entry ], [ %.pre.i.i, %cond.false.i.i ]
  call void @llvm.lifetime.start.p0(i64 8, ptr nonnull %ref.tmp.i) #30
  %exercise.i = getelementptr inbounds nuw i8, ptr %this, i64 136
  %2 = load ptr, ptr %exercise.i, align 8, !tbaa !44
  %cmp.not.i1.i = icmp eq ptr %2, null
  br i1 %cmp.not.i1.i, label %cond.false.i2.i, label %_ZNK8QuantLib38AnalyticPartialTimeBarrierOptionEngine12residualTimeEv.exit, !prof !66

cond.false.i2.i:                                  ; preds = %_ZNK5boost10shared_ptrIN8QuantLib30GeneralizedBlackScholesProcessEEptEv.exit.i
  tail call void @_ZN5boost16assertion_failedEPKcS1_S1_l(ptr noundef nonnull @.str.22, ptr noundef nonnull @__PRETTY_FUNCTION__._ZNK5boost10shared_ptrIN8QuantLib8ExerciseEEptEv, ptr noundef nonnull @.str.23, i64 noundef 784)
  %.pre.i3.i = load ptr, ptr %exercise.i, align 8, !tbaa !44
  br label %_ZNK8QuantLib38AnalyticPartialTimeBarrierOptionEngine12residualTimeEv.exit

_ZNK8QuantLib38AnalyticPartialTimeBarrierOptionEngine12residualTimeEv.exit: ; preds = %_ZNK5boost10shared_ptrIN8QuantLib30GeneralizedBlackScholesProcessEEptEv.exit.i, %cond.false.i2.i
  %3 = phi ptr [ %2, %_ZNK5boost10shared_ptrIN8QuantLib30GeneralizedBlackScholesProcessEEptEv.exit.i ], [ %.pre.i3.i, %cond.false.i2.i ]
  %call3.i = tail call i64 @_ZNK8QuantLib8Exercise8lastDateEv(ptr noundef nonnull align 8 dereferenceable(36) %3)
  store i64 %call3.i, ptr %ref.tmp.i, align 8
  %vtable.i = load ptr, ptr %1, align 8, !tbaa !33
  %vfn.i = getelementptr inbounds i8, ptr %vtable.i, i64 112
  %4 = load ptr, ptr %vfn.i, align 8
  %call4.i = call noundef double %4(ptr noundef nonnull align 8 dereferenceable(250) %1, ptr noundef nonnull align 8 dereferenceable(8) %ref.tmp.i)
  call void @llvm.lifetime.end.p0(i64 8, ptr nonnull %ref.tmp.i) #30
  %call2 = call noundef double @_ZNK8QuantLib38AnalyticPartialTimeBarrierOptionEngine10volatilityEd(ptr noundef nonnull align 8 dereferenceable(384) %this, double noundef %call4.i)
  %call3 = call noundef double @_ZNK8QuantLib38AnalyticPartialTimeBarrierOptionEngine2g1Ev(ptr noundef nonnull align 8 dereferenceable(384) %this)
  %barrier.i = getelementptr inbounds nuw i8, ptr %this, i64 160
  %5 = load double, ptr %barrier.i, align 8, !tbaa !96
  %6 = load ptr, ptr %process_.i, align 8, !tbaa !48
  %cmp.not.i.i3 = icmp eq ptr %6, null
  br i1 %cmp.not.i.i3, label %cond.false.i.i7, label %_ZNK8QuantLib38AnalyticPartialTimeBarrierOptionEngine10underlyingEv.exit, !prof !66

cond.false.i.i7:                                  ; preds = %_ZNK8QuantLib38AnalyticPartialTimeBarrierOptionEngine12residualTimeEv.exit
  call void @_ZN5boost16assertion_failedEPKcS1_S1_l(ptr noundef nonnull @.str.22, ptr noundef nonnull @__PRETTY_FUNCTION__._ZNK5boost10shared_ptrIN8QuantLib30GeneralizedBlackScholesProcessEEptEv, ptr noundef nonnull @.str.23, i64 noundef 784)
  %.pre.i.i8 = load ptr, ptr %process_.i, align 8, !tbaa !48
  br label %_ZNK8QuantLib38AnalyticPartialTimeBarrierOptionEngine10underlyingEv.exit

_ZNK8QuantLib38AnalyticPartialTimeBarrierOptionEngine10underlyingEv.exit: ; preds = %_ZNK8QuantLib38AnalyticPartialTimeBarrierOptionEngine12residualTimeEv.exit, %cond.false.i.i7
  %7 = phi ptr [ %6, %_ZNK8QuantLib38AnalyticPartialTimeBarrierOptionEngine12residualTimeEv.exit ], [ %.pre.i.i8, %cond.false.i.i7 ]
  %vtable.i5 = load ptr, ptr %7, align 8, !tbaa !33
  %vfn.i6 = getelementptr inbounds i8, ptr %vtable.i5, i64 120
  %8 = load ptr, ptr %vfn.i6, align 8
  %call2.i = call noundef double %8(ptr noundef nonnull align 8 dereferenceable(250) %7)
  %div = fdiv double %5, %call2.i
  %call6 = call double @log(double noundef %div) #30, !tbaa !94
  %mul = fmul double %call6, 2.000000e+00
  %call7 = call double @sqrt(double noundef %call4.i) #30, !tbaa !94
  %mul8 = fmul double %call2, %call7
  %div9 = fdiv double %mul, %mul8
  %add = fadd double %call3, %div9
  ret double %add
}